; Function Attrs: nounwind uwtable
define ptr @l_Lean_Meta_SimpTheorems_erase___rarg___lambda__2(ptr noundef %0, ptr noundef readonly captures(none) %1, ptr noundef %2, ptr noundef %3, ptr noundef %4, ptr noundef %5, ptr readnone captures(none) %6) local_unnamed_addr #1 {
  %8 = getelementptr inbounds nuw i8, ptr %0, i64 16
  %9 = load ptr, ptr %8, align 8, !tbaa !9
  %10 = ptrtoint ptr %9 to i64
  %11 = and i64 %10, 1
  %.not = icmp eq i64 %11, 0
  br i1 %.not, label %12, label %lean_inc.exit26

12:                                               ; preds = %7
  %.val.i = load i32, ptr %9, align 4, !tbaa !4
  %13 = icmp sgt i32 %.val.i, 0
  br i1 %13, label %14, label %16, !prof !11

14:                                               ; preds = %12
  %15 = add nuw i32 %.val.i, 1
  store i32 %15, ptr %9, align 4, !tbaa !4
  br label %lean_inc.exit26

16:                                               ; preds = %12
  %.not.i = icmp eq i32 %.val.i, 0
  br i1 %.not.i, label %lean_inc.exit26, label %17

17:                                               ; preds = %16
  tail call void @lean_inc_ref_cold(ptr noundef nonnull %9) #6
  br label %lean_inc.exit26

lean_inc.exit26:                                  ; preds = %17, %16, %14, %7
  %18 = getelementptr inbounds nuw i8, ptr %1, i64 8
  %19 = load ptr, ptr %18, align 8, !tbaa !9
  %20 = ptrtoint ptr %19 to i64
  %21 = and i64 %20, 1
  %.not.i27 = icmp eq i64 %21, 0
  br i1 %.not.i27, label %22, label %l_Lean_Meta_Origin_key.exit

22:                                               ; preds = %lean_inc.exit26
  %.val.i.i = load i32, ptr %19, align 4, !tbaa !4
  %23 = icmp sgt i32 %.val.i.i, 0
  br i1 %23, label %24, label %26, !prof !11

24:                                               ; preds = %22
  %25 = add nuw i32 %.val.i.i, 1
  store i32 %25, ptr %19, align 4, !tbaa !4
  br label %l_Lean_Meta_Origin_key.exit

26:                                               ; preds = %22
  %.not.i.i = icmp eq i32 %.val.i.i, 0
  br i1 %.not.i.i, label %l_Lean_Meta_Origin_key.exit, label %27

27:                                               ; preds = %26
  tail call void @lean_inc_ref_cold(ptr noundef nonnull %19) #6
  br label %l_Lean_Meta_Origin_key.exit

l_Lean_Meta_Origin_key.exit:                      ; preds = %lean_inc.exit26, %24, %26, %27
  %28 = tail call ptr @l_Lean_MessageData_ofName(ptr noundef %19) #6
  %29 = load ptr, ptr @l_Lean_getAsyncConstInfo___at___private_Lean_Meta_Tactic_Simp_SimpTheorems_0__Lean_Meta_isRflTheoremCore___spec__1___closed__4, align 8, !tbaa !9
  tail call void @lean_inc_heartbeat() #6
  %30 = tail call noalias ptr @mi_malloc_small(i64 noundef 24) #6
  %31 = icmp eq ptr %30, null
  br i1 %31, label %32, label %lean_alloc_ctor.exit

32:                                               ; preds = %l_Lean_Meta_Origin_key.exit
  tail call void @lean_internal_panic_out_of_memory() #7
  unreachable

lean_alloc_ctor.exit:                             ; preds = %l_Lean_Meta_Origin_key.exit
  %33 = getelementptr inbounds nuw i8, ptr %30, i64 4
  store i32 1, ptr %30, align 4, !tbaa !4
  store i32 117571608, ptr %33, align 4
  %34 = getelementptr inbounds nuw i8, ptr %30, i64 8
  store ptr %29, ptr %34, align 8, !tbaa !9
  %35 = getelementptr inbounds nuw i8, ptr %30, i64 16
  store ptr %28, ptr %35, align 8, !tbaa !9
  %36 = load ptr, ptr @l_Lean_Meta_SimpTheorems_erase___rarg___lambda__2___closed__2, align 8, !tbaa !9
  tail call void @lean_inc_heartbeat() #6
  %37 = tail call noalias ptr @mi_malloc_small(i64 noundef 24) #6
  %38 = icmp eq ptr %37, null
  br i1 %38, label %39, label %lean_alloc_ctor.exit28

39:                                               ; preds = %lean_alloc_ctor.exit
  tail call void @lean_internal_panic_out_of_memory() #7
  unreachable

lean_alloc_ctor.exit28:                           ; preds = %lean_alloc_ctor.exit
  %40 = getelementptr inbounds nuw i8, ptr %37, i64 4
  store i32 1, ptr %37, align 4, !tbaa !4
  store i32 117571608, ptr %40, align 4
  %41 = getelementptr inbounds nuw i8, ptr %37, i64 8
  store ptr %30, ptr %41, align 8, !tbaa !9
  %42 = getelementptr inbounds nuw i8, ptr %37, i64 16
  store ptr %36, ptr %42, align 8, !tbaa !9
  %43 = ptrtoint ptr %0 to i64
  %44 = and i64 %43, 1
  %.not32 = icmp eq i64 %44, 0
  br i1 %.not32, label %45, label %lean_inc.exit

45:                                               ; preds = %lean_alloc_ctor.exit28
  %.val.i29 = load i32, ptr %0, align 4, !tbaa !4
  %46 = icmp sgt i32 %.val.i29, 0
  br i1 %46, label %47, label %49, !prof !11

47:                                               ; preds = %45
  %48 = add nuw i32 %.val.i29, 1
  store i32 %48, ptr %0, align 4, !tbaa !4
  br label %lean_inc.exit

49:                                               ; preds = %45
  %.not.i30 = icmp eq i32 %.val.i29, 0
  br i1 %.not.i30, label %lean_inc.exit, label %50

50:                                               ; preds = %49
  tail call void @lean_inc_ref_cold(ptr noundef nonnull %0) #6
  br label %lean_inc.exit

lean_inc.exit:                                    ; preds = %50, %49, %47, %lean_alloc_ctor.exit28
  %51 = tail call ptr @l_Lean_logWarning___rarg(ptr noundef nonnull %0, ptr noundef %2, ptr noundef %3, ptr noundef %4, ptr noundef nonnull %37) #6
  tail call void @lean_inc_heartbeat() #6
  %52 = tail call noalias ptr @mi_malloc_small(i64 noundef 40) #6
  %53 = icmp eq ptr %52, null
  br i1 %53, label %54, label %lean_alloc_closure.exit

54:                                               ; preds = %lean_inc.exit
  tail call void @lean_internal_panic_out_of_memory() #7
  unreachable

lean_alloc_closure.exit:                          ; preds = %lean_inc.exit
  %55 = getelementptr inbounds nuw i8, ptr %52, i64 4
  store i32 1, ptr %52, align 4, !tbaa !4
  store i32 -184549336, ptr %55, align 4
  %56 = getelementptr inbounds nuw i8, ptr %52, i64 8
  store ptr @l_Lean_Meta_SimpTheorems_erase___rarg___lambda__1___boxed, ptr %56, align 8, !tbaa !9
  %57 = getelementptr inbounds nuw i8, ptr %52, i64 16
  store i16 3, ptr %57, align 8, !tbaa !16
  %58 = getelementptr inbounds nuw i8, ptr %52, i64 18
  store i16 2, ptr %58, align 2, !tbaa !16
  %59 = getelementptr inbounds nuw i8, ptr %52, i64 24
  store ptr %0, ptr %59, align 8, !tbaa !9
  %60 = getelementptr inbounds nuw i8, ptr %52, i64 32
  store ptr %5, ptr %60, align 8, !tbaa !9
  %61 = tail call ptr @lean_apply_4(ptr noundef %9, ptr noundef nonnull inttoptr (i64 1 to ptr), ptr noundef nonnull inttoptr (i64 1 to ptr), ptr noundef %51, ptr noundef nonnull %52) #6
  ret ptr %61
}